(lp0
(S'06'
p1
F1.07975
tp2
a(S'22'
p3
F8.348625
tp4
a(S'17'
p5
F12.7498125
tp6
a(S'12'
p7
F16.9071875
tp8
a(S'14'
p9
F27.9376875
tp10
a(S'10'
p11
F32.6175
tp12
a(S'01'
p13
F36.612375
tp14
a(S'23'
p15
F43.5213125
tp16
a(S'19'
p17
F48.4565625
tp18
a(S'10'
p19
F53.136375
tp20
a(S'23'
p21
F57.18925
tp22
a(S'22'
p23
F60.893875
tp24
a(S'06'
p25
F64.981625
tp26
a(S'07'
p27
F70.00975
tp28
a(S'23'
p29
F78.706625
tp30
a(S'18'
p31
F83.4909375
tp32
a(S'01'
p33
F87.2565
tp34
a(S'03'
p35
F94.5601875
tp36
a(S'24'
p37
F98.1835
tp38
a(S'11'
p39
F105.5104375
tp40
a(S'23'
p41
F109.4820625
tp42
a(S'12'
p43
F118.15575
tp44
a(S'10'
p45
F129.197875
tp46
a(S'10'
p47
F133.738375
tp48
a(S'11'
p49
F138.1628125
tp50
a(S'21'
p51
F141.809375
tp52
a(S'14'
p53
F151.0403125
tp54
a(S'15'
p55
F158.227875
tp56
a(S'02'
p57
F169.3976875
tp58
a(S'10'
p59
F173.798875
tp60
a(S'18'
p61
F178.3858125
tp62
a(S'15'
p63
F182.9263125
tp64
a(S'02'
p65
F187.45525
tp66
a(S'08'
p67
F191.89125
tp68
a(S'05'
p69
F206.2538125
tp70
a(S'10'
p71
F210.6318125
tp72
a(S'18'
p73
F219.17775
tp74
a(S'06'
p75
F223.0565
tp76
a(S'04'
p77
F232.241
tp78
a(S'20'
p79
F236.0965
tp80
a(S'08'
p81
F240.277125
tp82
a(S'17'
p83
F250.5994375
tp84
a(S'24'
p85
F254.286625
tp86
a(S'13'
p87
F262.403
tp88
a(S'01'
p89
F266.955125
tp90
a(S'10'
p91
F276.4763125
tp92
a(S'16'
p93
F281.3419375
tp94
a(S'14'
p95
F289.6440625
tp96
a(S'09'
p97
F294.161375
tp98
a(S'06'
p99
F297.8369375
tp100
a(S'10'
p101
F302.371625
tp102
a(S'16'
p103
F311.4168125
tp104
a(S'20'
p105
F315.1098125
tp106
a(S'21'
p107
F322.2509375
tp108
a(S'23'
p109
F326.1180625
tp110
a(S'23'
p111
F329.991
tp112
a(S'07'
p113
F334.5895625
tp114
a(S'24'
p115
F338.14325
tp116
a(S'17'
p117
F342.5444375
tp118
a(S'07'
p119
F352.4255625
tp120
a(S'05'
p121
F357.0821875
tp122
a(S'11'
p123
F363.805375
tp124
a(S'16'
p125
F368.54325
tp126
a(S'18'
p127
F373.1650625
tp128
a(S'20'
p129
F379.7605625
tp130
a(S'02'
p131
F384.6261875
tp132
a(S'09'
p133
F388.8068125
tp134
a(S'16'
p135
F393.4634375
tp136
a(S'09'
p137
F402.5783125
tp138
a(S'05'
p139
F406.8634375
tp140
a(S'12'
p141
F411.1136875
tp142
a(S'11'
p143
F415.1898125
tp144
a(S'01'
p145
F419.6374375
tp146
a(S'13'
p147
F424.236
tp148
a(S'24'
p149
F427.8593125
tp150
a(S'11'
p151
F432.0050625
tp152
a(S'03'
p153
F436.0056875
tp154
a(S'18'
p155
F444.6909375
tp156
a(S'05'
p157
F454.1425
tp158
a(S'08'
p159
F458.323125
tp160
a(S'19'
p161
F462.5269375
tp162
a(S'23'
p163
F466.7888125
tp164
a(S'10'
p165
F471.6544375
tp166
a(S'14'
p167
F483.6253125
tp168
a(S'20'
p169
F491.706875
tp170
a(S'04'
p171
F496.4795625
tp172
a(S'08'
p173
F504.3289375
tp174
a(S'02'
p175
F509.101625
tp176
a(S'24'
p177
F517.4734375
tp178
a(S'19'
p179
F521.665625
tp180
a(S'17'
p181
F525.730125
tp182
a(S'03'
p183
F530.4099375
tp184
a(S'09'
p185
F534.637
tp186
a(S'18'
p187
F542.0451875
tp188
a(S'19'
p189
F550.614375
tp190
a(S'16'
p191
F555.445125
tp192
a(S'19'
p193
F559.62575
tp194
a(S'10'
p195
F564.2475625
tp196
a(S'08'
p197
F568.741625
tp198
a(S'10'
p199
F573.3634375
tp200
a(S'06'
p201
F577.5208125
tp202
a(S'10'
p203
F582.0613125
tp204
a(S'11'
p205
F586.4044375
tp206
a(S'06'
p207
F590.3644375
tp208
a(S'09'
p209
F594.9281875
tp210
a(S'17'
p211
F605.7613125
tp212
a(S'19'
p213
F615.30575
tp214
a(S'01'
p215
F619.4283125
tp216
a(S'04'
p217
F624.2475
tp218
a(S'19'
p219
F634.209875
tp220
a(S'22'
p221
F638.4253125
tp222
a(S'07'
p223
F650.489125
tp224
a(S'17'
p225
F655.0993125
tp226
a(S'07'
p227
F664.2838125
tp228
a(S'17'
p229
F668.383125
tp230
a(S'02'
p231
F677.95075
tp232
a(S'20'
p233
F685.1615625
tp234
a(S'04'
p235
F689.4466875
tp236
a(S'03'
p237
F693.4299375
tp238
a(S'09'
p239
F697.94725
tp240
a(S'17'
p241
F702.1859375
tp242
a(S'08'
p243
F712.601125
tp244
a(S'21'
p245
F716.654
tp246
a(S'02'
p247
F727.8238125
tp248
a(S'07'
p249
F741.002125
tp250
a(S'08'
p251
F750.476875
tp252
a(S'09'
p253
F754.84325
tp254
a(S'14'
p255
F759.708875
tp256
a(S'18'
p257
F764.6093125
tp258
a(S'13'
p259
F769.103375
tp260
a(S'10'
p261
F773.73675
tp262
a(S'14'
p263
F778.184375
tp264
a(S'08'
p265
F782.457875
tp266
a(S'14'
p267
F787.1145
tp268
a(S'01'
p269
F797.367125
tp270
a(S'19'
p271
F801.4664375
tp272
a(S'02'
p273
F805.6238125
tp274
a(S'19'
p275
F817.4089375
tp276
a(S'19'
p277
F826.4425
tp278
a(S'20'
p279
F830.1006875
tp280
a(S'03'
p281
F834.8269375
tp282
a(S'09'
p283
F839.2978125
tp284
a(S'01'
p285
F843.339125
tp286
a(S'24'
p287
F850.387375
tp288
a(S'22'
p289
F854.17325
tp290
a(S'17'
p291
F858.3770625
tp292
a(S'08'
p293
F863.2426875
tp294
a(S'22'
p295
F867.05175
tp296
a(S'22'
p297
F876.456875
tp298
a(S'15'
p299
F881.101875
tp300
a(S'13'
p301
F885.654
tp302
a(S'18'
p303
F890.58925
tp304
a(S'12'
p305
F894.7814375
tp306
a(S'20'
p307
F898.5673125
tp308
a(S'24'
p309
F907.2525625
tp310
a(S'06'
p311
F911.746625
tp312
a(S'10'
p313
F916.29875
tp314
a(S'15'
p315
F921.721625
tp316
a(S'20'
p317
F928.9324375
tp318
a(S'24'
p319
F932.567375
tp320
a(S'08'
p321
F937.015
tp322
a(S'08'
p323
F941.7180625
tp324
a(S'03'
p325
F950.1130625
tp326
a(S'19'
p327
F954.3865625
tp328
a(S'22'
p329
F958.0795625
tp330
a(S'12'
p331
F962.8058125
tp332
a(S'13'
p333
F967.39275
tp334
a(S'10'
p335
F971.7939375
tp336
a(S'10'
p337
F976.4505625
tp338
a(S'21'
p339
F982.709375
tp340
a(S'16'
p341
F992.3118125
tp342
a(S'12'
p343
F1003.5513125
tp344
a(S'06'
p345
F1007.55775
tp346
a(S'23'
p347
F1011.4829375
tp348
a(S'07'
p349
F1016.0815
tp350
a(S'15'
p351
F1020.6684375
tp352
a(S'17'
p353
F1024.6806875
tp354
a(S'04'
p355
F1028.948375
tp356
a(S'05'
p357
F1033.99975
tp358
a(S'03'
p359
F1037.85525
tp360
a(S'14'
p361
F1042.4421875
tp362
a(S'03'
p363
F1050.8371875
tp364
a(S'17'
p365
F1055.029375
tp366
a(S'08'
p367
F1059.4538125
tp368
a(S'04'
p369
F1063.77375
tp370
a(S'21'
p371
F1070.8684375
tp372
a(S'24'
p373
F1074.441
tp374
a(S'01'
p375
F1078.5635625
tp376
a(S'08'
p377
F1082.686125
tp378
a(S'19'
p379
F1086.8783125
tp380
a(S'11'
p381
F1091.0125
tp382
a(S'17'
p383
F1095.2046875
tp384
a(S'17'
p385
F1102.9611875
tp386
a(S'13'
p387
F1107.942875
tp388
a(S'05'
p389
F1112.6459375
tp390
a(S'20'
p391
F1116.6059375
tp392
a(S'05'
p393
F1121.3321875
tp394
a(S'22'
p395
F1125.1876875
tp396
a(S'17'
p397
F1129.20575
tp398
a(S'14'
p399
F1138.668875
tp400
a(S'14'
p401
F1143.72025
tp402
a(S'11'
p403
F1147.877625
tp404
a(S'15'
p405
F1153.3005
tp406
a(S'14'
p407
F1157.8178125
tp408
a(S'18'
p409
F1162.5556875
tp410
a(S'13'
p411
F1167.0961875
tp412
a(S'11'
p413
F1174.6785
tp414
a(S'12'
p415
F1178.7198125
tp416
a(S'24'
p417
F1182.447625
tp418
a(S'09'
p419
F1195.3473125
tp420
a(S'14'
p421
F1206.3778125
tp422
a(S'03'
p423
F1210.6629375
tp424
a(S'01'
p425
F1214.86675
tp426
a(S'24'
p427
F1219.2215
tp428
a(S'24'
p429
F1223.088625
tp430
a(S'08'
p431
F1227.257625
tp432
a(S'12'
p433
F1231.4846875
tp434
a(S'07'
p435
F1236.0368125
tp436
a(S'05'
p437
F1244.6291875
tp438
a(S'23'
p439
F1253.1286875
tp440
a(S'03'
p441
F1257.1815625
tp442
a(S'22'
p443
F1265.2979375
tp444
a(S'01'
p445
F1269.2928125
tp446
a(S'15'
p447
F1274.3325625
tp448
a(S'21'
p449
F1280.4985
tp450
a(S'05'
p451
F1290.76275
tp452
a(S'05'
p453
F1295.419375
tp454
a(S'17'
p455
F1299.7045
tp456
a(S'16'
p457
F1304.6861875
tp458
a(S'24'
p459
F1308.344375
tp460
a(S'02'
p461
F1312.71075
tp462
a(S'15'
p463
F1321.6514375
tp464
a(S'18'
p465
F1330.23225
tp466
a(S'06'
p467
F1340.57775
tp468
a(S'13'
p469
F1345.3853125
tp470
a(S'19'
p471
F1349.7284375
tp472
a(S'23'
p473
F1353.676875
tp474
a(S'02'
p475
F1357.8806875
tp476
a(S'03'
p477
F1365.0915
tp478
a(S'14'
p479
F1369.7016875
tp480
a(S'21'
p481
F1373.359875
tp482
a(S'23'
p483
F1377.41275
tp484
a(S'10'
p485
F1382.3944375
tp486
a(S'06'
p487
F1386.6853125
tp488
a(S'06'
p489
F1390.8195
tp490
a(S'13'
p491
F1395.27875
tp492
a(S'04'
p493
F1400.2836875
tp494
a(S'05'
p495
F1414.64625
tp496
a(S'18'
p497
F1424.0165
tp498
a(S'20'
p499
F1427.7095
tp500
a(S'18'
p501
F1436.39475
tp502
a(S'05'
p503
F1440.7263125
tp504
a(S'06'
p505
F1447.6816875
tp506
a(S'04'
p507
F1452.38475
tp508
a(S'13'
p509
F1457.018125
tp510
a(S'05'
p511
F1461.558625
tp512
a(S'06'
p513
F1468.734625
tp514
a(S'09'
p515
F1481.6343125
tp516
a(S'17'
p517
F1485.6988125
tp518
a(S'08'
p519
F1489.91425
tp520
a(S'17'
p521
F1494.06
tp522
a(S'02'
p523
F1498.426375
tp524
a(S'16'
p525
F1502.7463125
tp526
a(S'01'
p527
F1507.426125
tp528
a(S'18'
p529
F1512.2220625
tp530
a(S'05'
p531
F1516.5768125
tp532
a(S'07'
p533
F1522.069375
tp534
a(S'22'
p535
F1532.589
tp536
a(S'19'
p537
F1536.8160625
tp538
a(S'09'
p539
F1541.0663125
tp540
a(S'22'
p541
F1544.6780625
tp542
a(S'09'
p543
F1549.357875
tp544
a(S'09'
p545
F1553.99125
tp546
a(S'23'
p547
F1558.05575
tp548
a(S'07'
p549
F1562.6543125
tp550
a(S'12'
p551
F1567.24125
tp552
a(S'22'
p553
F1570.841375
tp554
a(S'11'
p555
F1576.94925
tp556
a(S'15'
p557
F1583.12675
tp558
a(S'02'
p559
F1593.7044375
tp560
a(S'06'
p561
F1600.4856875
tp562
a(S'12'
p563
F1610.6221875
tp564
a(S'11'
p565
F1615.1395
tp566
a(S'18'
p567
F1619.7613125
tp568
a(S'19'
p569
F1623.94775
tp570
a(S'20'
p571
F1630.7638125
tp572
a(S'16'
p573
F1635.095375
tp574
a(S'21'
p575
F1638.892875
tp576
a(S'04'
p577
F1648.4605
tp578
a(S'16'
p579
F1657.169
tp580
a(S'11'
p581
F1661.6863125
tp582
a(S'03'
p583
F1666.366125
tp584
a(S'21'
p585
F1674.02975
tp586
a(S'24'
p587
F1682.715
tp588
a(S'02'
p589
F1687.1161875
tp590
a(S'19'
p591
F1691.726375
tp592
a(S'16'
p593
F1696.5106875
tp594
a(S'02'
p595
F1706.449875
tp596
a(S'01'
p597
F1714.1599375
tp598
a(S'07'
p599
F1719.2809375
tp600
a(S'17'
p601
F1725.8648125
tp602
a(S'06'
p603
F1734.2598125
tp604
a(S'19'
p605
F1738.5333125
tp606
a(S'19'
p607
F1747.0444375
tp608
a(S'11'
p609
F1751.259875
tp610
a(S'01'
p611
F1755.405625
tp612
a(S'06'
p613
F1765.565375
tp614
a(S'18'
p615
F1770.1639375
tp616
a(S'19'
p617
F1774.750875
tp618
a(S'18'
p619
F1785.676875
tp620
a(S'10'
p621
F1795.7785625
tp622
a(S'03'
p623
F1802.0605625
tp624
a(S'04'
p625
F1814.867375
tp626
a(S'03'
p627
F1818.955125
tp628
a(S'17'
p629
F1826.3285
tp630
a(S'04'
p631
F1830.7065
tp632
a(S'01'
p633
F1835.177375
tp634
a(S'24'
p635
F1839.06775
tp636
a(S'13'
p637
F1847.5324375
tp638
a(S'23'
p639
F1851.7014375
tp640
a(S'16'
p641
F1856.520625
tp642
a(S'13'
p643
F1861.2585
tp644
a(S'14'
p645
F1866.309875
tp646
a(S'05'
p647
F1875.1925
tp648
a(S'22'
p649
F1883.146375
tp650
a(S'01'
p651
F1887.4546875
tp652
a(S'10'
p653
F1892.1113125
tp654
a(S'08'
p655
F1900.274125
tp656
a(S'07'
p657
F1905.3719375
tp658
a(S'14'
p659
F1910.3304375
tp660
a(S'20'
p661
F1918.9576875
tp662
a(S'04'
p663
F1923.7071875
tp664
a(S'03'
p665
F1927.7600625
tp666
a(S'18'
p667
F1932.6140625
tp668
a(S'17'
p669
F1936.7714375
tp670
a(S'20'
p671
F1940.4644375
tp672
a(S'16'
p673
F1945.7711875
tp674
a(S'07'
p675
F1950.393
tp676
a(S'24'
p677
F1960.0186875
tp678
a(S'22'
p679
F1963.653625
tp680
a(S'22'
p681
F1967.3118125
tp682
a(S'20'
p683
F1971.31825
tp684
a(S'21'
p685
F1977.983375
tp686
a(S'22'
p687
F1985.51925
tp688
a(S'16'
p689
F1990.7099375
tp690
a(S'11'
p691
F1997.433125
tp692
a(S'04'
p693
F2008.1965625
tp694
a(S'01'
p695
F2012.110125
tp696
a(S'12'
p697
F2016.45325
tp698
a(S'20'
p699
F2020.343625
tp700
a(S'09'
p701
F2024.8145
tp702
a(S'02'
p703
F2034.382125
tp704
a(S'12'
p705
F2038.6788125
tp706
a(S'03'
p707
F2047.8633125
tp708
a(S'16'
p709
F2052.6825
tp710
a(S'15'
p711
F2057.4551875
tp712
a(S'12'
p713
F2061.7054375
tp714
a(S'21'
p715
F2067.871375
tp716
a(S'07'
p717
F2072.737
tp718
a(S'17'
p719
F2077.1265625
tp720
a(S'24'
p721
F2080.8311875
tp722
a(S'04'
p723
F2085.05825
tp724
a(S'18'
p725
F2089.633625
tp726
a(S'20'
p727
F2093.593625
tp728
a(S'15'
p729
F2098.4824375
tp730
a(S'09'
p731
F2104.915375
tp732
a(S'03'
p733
F2109.1308125
tp734
a(S'21'
p735
F2112.7425625
tp736
a(S'24'
p737
F2116.284625
tp738
a(S'06'
p739
F2125.4459375
tp740
a(S'16'
p741
F2130.137375
tp742
a(S'09'
p743
F2137.2553125
tp744
a(S'15'
p745
F2141.7435625
tp746
a(S'13'
p747
F2150.1501875
tp748
a(S'12'
p749
F2154.7139375
tp750
a(S'04'
p751
F2159.0919375
tp752
a(S'07'
p753
F2163.8181875
tp754
a(S'20'
p755
F2171.5630625
tp756
a(S'08'
p757
F2175.6159375
tp758
a(S'16'
p759
F2186.1704375
tp760
a(S'01'
p761
F2190.3394375
tp762
a(S'04'
p763
F2194.7174375
tp764
a(S'11'
p765
F2201.8701875
tp766
a(S'09'
p767
F2210.9850625
tp768
a(S'19'
p769
F2215.28175
tp770
a(S'12'
p771
F2219.6829375
tp772
a(S'05'
p773
F2224.2234375
tp774
a(S'10'
p775
F2228.84525
tp776
a(S'18'
p777
F2233.4031875
tp778
a(S'01'
p779
F2237.2296875
tp780
a(S'23'
p781
F2243.6045625
tp782
a(S'21'
p783
F2247.135
tp784
a(S'11'
p785
F2251.513
tp786
a(S'21'
p787
F2255.194375
tp788
a(S'12'
p789
F2264.2163125
tp790
a(S'13'
p791
F2269.128375
tp792
a(S'07'
p793
F2275.7354375
tp794
a(S'13'
p795
F2280.25275
tp796
a(S'14'
p797
F2291.062625
tp798
a(S'04'
p799
F2295.521875
tp800
a(S'12'
p801
F2299.8301875
tp802
a(S'13'
p803
F2304.53325
tp804
a(S'10'
p805
F2309.189875
tp806
a(S'06'
p807
F2313.4169375
tp808
a(S'15'
p809
F2318.793375
tp810
a(S'08'
p811
F2323.4964375
tp812
a(S'18'
p813
F2328.054375
tp814
a(S'02'
p815
F2332.4439375
tp816
a(S'05'
p817
F2336.9031875
tp818
a(S'05'
p819
F2341.3508125
tp820
a(S'16'
p821
F2351.7195625
tp822
a(S'07'
p823
F2356.4690625
tp824
a(S'15'
p825
F2361.8455
tp826
a(S'13'
p827
F2370.2405
tp828
a(S'02'
p829
F2374.606875
tp830
a(S'22'
p831
F2378.4275625
tp832
a(S'21'
p833
F2386.033125
tp834
a(S'13'
p835
F2390.4226875
tp836
a(S'17'
p837
F2400.536
tp838
a(S'11'
p839
F2408.838125
tp840
a(S'04'
p841
F2413.5179375
tp842
a(S'18'
p843
F2418.232625
tp844
a(S'17'
p845
F2422.51775
tp846
a(S'22'
p847
F2426.199125
tp848
a(S'07'
p849
F2435.2095
tp850
a(S'23'
p851
F2442.1184375
tp852
a(S'07'
p853
F2447.611
tp854
a(S'08'
p855
F2451.7451875
tp856
a(S'01'
p857
F2455.774875
tp858
a(S'14'
p859
F2460.5824375
tp860
a(S'01'
p861
F2465.0533125
tp862
a(S'15'
p863
F2469.5938125
tp864
a(S'16'
p865
F2479.6955
tp866
a(S'20'
p867
F2483.376875
tp868
a(S'12'
p869
F2487.8709375
tp870
a(S'19'
p871
F2492.481125
tp872
a(S'21'
p873
F2496.1335
tp874
a(S'21'
p875
F2499.6871875
tp876
a(S'10'
p877
F2504.401875
tp878
a(S'04'
p879
F2508.6173125
tp880
a(S'12'
p881
F2512.8908125
tp882
a(S'07'
p883
F2517.6170625
tp884
a(S'03'
p885
F2525.594125
tp886
a(S'05'
p887
F2530.0765625
tp888
a(S'21'
p889
F2540.1434375
tp890
a(S'02'
p891
F2544.544625
tp892
a(S'04'
p893
F2549.294125
tp894
a(S'10'
p895
F2553.834625
tp896
a(S'05'
p897
F2558.468
tp898
a(S'24'
p899
F2562.1551875
tp900
a(S'12'
p901
F2566.3125625
tp902
a(S'17'
p903
F2570.5628125
tp904
a(S'17'
p905
F2574.894375
tp906
a(S'05'
p907
F2579.353625
tp908
a(S'08'
p909
F2583.6619375
tp910
a(S'21'
p911
F2587.6219375
tp912
a(S'12'
p913
F2595.4364375
tp914
a(S'24'
p915
F2599.53575
tp916
a(S'04'
p917
F2604.0995
tp918
a(S'07'
p919
F2613.7484375
tp920
a(S'02'
p921
F2622.4685625
tp922
a(S'12'
p923
F2626.8116875
tp924
a(S'07'
p925
F2638.8755
tp926
a(S'07'
p927
F2643.9500625
tp928
a(S'05'
p929
F2648.862125
tp930
a(S'03'
p931
F2652.915
tp932
a(S'10'
p933
F2661.4841875
tp934
a(S'15'
p935
F2669.5076875
tp936
a(S'21'
p937
F2673.4676875
tp938
a(S'20'
p939
F2677.2245
tp940
a(S'02'
p941
F2687.6164375
tp942
a(S'14'
p943
F2696.557125
tp944
a(S'22'
p945
F2700.2153125
tp946
a(S'10'
p947
F2705.0460625
tp948
a(S'10'
p949
F2714.079625
tp950
a(S'24'
p951
F2717.84225
tp952
a(S'20'
p953
F2721.69775
tp954
a(S'14'
p955
F2731.4279375
tp956
a(S'07'
p957
F2744.60625
tp958
a(S'17'
p959
F2749.0074375
tp960
a(S'18'
p961
F2754.0588125
tp962
a(S'03'
p963
F2758.00725
tp964
a(S'11'
p965
F2762.1008125
tp966
a(S'04'
p967
F2766.380125
tp968
a(S'12'
p969
F2775.8896875
tp970
a(S'24'
p971
F2784.2266875
tp972
a(S'15'
p973
F2788.7149375
tp974
a(S'12'
p975
F2801.057375
tp976
a(S'03'
p977
F2805.145125
tp978
a(S'23'
p979
F2810.9395
tp980
a(S'22'
p981
F2814.6325
tp982
a(S'15'
p983
F2819.184625
tp984
a(S'02'
p985
F2827.9279375
tp986
a(S'08'
p987
F2835.7773125
tp988
a(S'20'
p989
F2839.78375
tp990
a(S'08'
p991
F2846.7043125
tp992
a(S'01'
p993
F2851.384125
tp994
a(S'21'
p995
F2854.9378125
tp996
a(S'20'
p997
F2858.4465
tp998
a(S'19'
p999
F2867.0156875
tp1000
a(S'12'
p1001
F2879.358125
tp1002
a(S'13'
p1003
F2884.096
tp1004
a(S'22'
p1005
F2888.0211875
tp1006
a(S'14'
p1007
F2896.8225625
tp1008
a(S'14'
p1009
F2906.55275
tp1010
a(S'22'
p1011
F2910.24575
tp1012
a(S'18'
p1013
F2919.627625
tp1014
a(S'01'
p1015
F2924.679
tp1016
a(S'11'
p1017
F2931.83175
tp1018
a(S'10'
p1019
F2936.5348125
tp1020
a(S'05'
p1021
F2940.8895625
tp1022
a(S'06'
p1023
F2949.83025
tp1024
a(S'01'
p1025
F2960.0364375
tp1026
a(S'23'
p1027
F2967.2936875
tp1028
a(S'02'
p1029
F2971.6716875
tp1030
a(S'08'
p1031
F2978.59225
tp1032
a(S'23'
p1033
F2986.4648125
tp1034
a(S'03'
p1035
F2990.68025
tp1036
a(S'03'
p1037
F3000.956125
tp1038
a(S'19'
p1039
F3014.0415625
tp1040
a(S'16'
p1041
F3024.735375
tp1042
a(S'16'
p1043
F3035.289875
tp1044
a(S'08'
p1045
F3039.4820625
tp1046
a(S'07'
p1047
F3044.4405625
tp1048
a(S'07'
p1049
F3049.062375
tp1050
a(S'10'
p1051
F3058.0959375
tp1052
a(S'02'
p1053
F3062.891875
tp1054
a(S'05'
p1055
F3067.037625
tp1056
a(S'01'
p1057
F3071.671
tp1058
a(S'21'
p1059
F3075.561375
tp1060
a(S'24'
p1061
F3079.1846875
tp1062
a(S'19'
p1063
F3083.3275625
tp1064
a(S'01'
p1065
F3094.230375
tp1066
a(S'12'
p1067
F3108.720625
tp1068
a(S'09'
p1069
F3113.087
tp1070
a(S'17'
p1071
F3117.244375
tp1072
a(S'14'
p1073
F3121.8545625
tp1074
a(S'22'
p1075
F3125.5359375
tp1076
a(S'24'
p1077
F3136.427125
tp1078
a(S'08'
p1079
F3140.805125
tp1080
a(S'11'
p1081
F3147.214875
tp1082
a(S'02'
p1083
F3152.0805
tp1084
a(S'08'
p1085
F3160.3361875
tp1086
a(S'14'
p1087
F3165.132125
tp1088
a(S'05'
p1089
F3169.158875
tp1090
a(S'19'
p1091
F3178.343375
tp1092
a(S'21'
p1093
F3182.036375
tp1094
a(S'03'
p1095
F3188.318375
tp1096
a(S'20'
p1097
F3192.0751875
tp1098
a(S'02'
p1099
F3196.5460625
tp1100
a(S'13'
p1101
F3204.9410625
tp1102
a(S'19'
p1103
F3214.1255625
tp1104
a(S'22'
p1105
F3217.748875
tp1106
a(S'20'
p1107
F3223.5084375
tp1108
a(S'19'
p1109
F3232.739375
tp1110
a(S'23'
p1111
F3236.699375
tp1112
a(S'23'
p1113
F3240.6245625
tp1114
a(S'12'
p1115
F3255.1148125
tp1116
a(S'14'
p1117
F3263.2544375
tp1118
a(S'12'
p1119
F3273.3909375
tp1120
a(S'24'
p1121
F3280.880375
tp1122
a(S'01'
p1123
F3289.588875
tp1124
a(S'09'
p1125
F3293.8159375
tp1126
a(S'01'
p1127
F3297.5815
tp1128
a(S'03'
p1129
F3301.5183125
tp1130
a(S'11'
p1131
F3309.100625
tp1132
a(S'20'
p1133
F3315.49875
tp1134
a(S'23'
p1135
F3319.3716875
tp1136
a(S'02'
p1137
F3323.5755
tp1138
a(S'10'
p1139
F3328.116
tp1140
a(S'12'
p1141
F3332.84225
tp1142
a(S'13'
p1143
F3337.7543125
tp1144
a(S'21'
p1145
F3341.348625
tp1146
a(S'14'
p1147
F3346.1678125
tp1148
a(S'22'
p1149
F3353.1
tp1150
a(S'13'
p1151
F3362.981125
tp1152
a(S'01'
p1153
F3370.842125
tp1154
a(S'13'
p1155
F3375.2085
tp1156
a(S'01'
p1157
F3383.917
tp1158
a(S'05'
p1159
F3388.968375
tp1160
a(S'08'
p1161
F3398.2921875
tp1162
a(S'21'
p1163
F3402.1186875
tp1164
a(S'23'
p1165
F3406.0090625
tp1166
a(S'21'
p1167
F3409.8994375
tp1168
a(S'16'
p1169
F3414.7650625
tp1170
a(S'19'
p1171
F3426.5501875
tp1172
a(S'13'
p1173
F3431.531875
tp1174
a(S'11'
p1175
F3435.5789375
tp1176
a(S'20'
p1177
F3439.41125
tp1178
a(S'15'
p1179
F3444.3000625
tp1180
a(S'13'
p1181
F3449.49075
tp1182
a(S'01'
p1183
F3456.35325
tp1184
a(S'15'
p1185
F3461.10275
tp1186
a(S'07'
p1187
F3466.1773125
tp1188
a(S'19'
p1189
F3470.276625
tp1190
a(S'09'
p1191
F3474.840375
tp1192
a(S'10'
p1193
F3479.7291875
tp1194
a(S'10'
p1195
F3484.5948125
tp1196
a(S'08'
p1197
F3489.088875
tp1198
a(S'18'
p1199
F3493.577125
tp1200
a(S'21'
p1201
F3497.154
tp1202
a(S'05'
p1203
F3509.542875
tp1204
a(S'13'
p1205
F3514.0718125
tp1206
a(S'24'
p1207
F3522.0836875
tp1208
a(S'10'
p1209
F3526.8215625
tp1210
a(S'05'
p1211
F3535.4139375
tp1212
a(S'16'
p1213
F3540.6278125
tp1214
a(S'22'
p1215
F3544.355625
tp1216
a(S'04'
p1217
F3549.3605625
tp1218
a(S'19'
p1219
F3558.905
tp1220
a(S'09'
p1221
F3563.271375
tp1222
a(S'01'
p1223
F3567.74225
tp1224
a(S'12'
p1225
F3571.9344375
tp1226
a(S'18'
p1227
F3576.55625
tp1228
a(S'11'
p1229
F3580.632375
tp1230
a(S'12'
p1231
F3584.9290625
tp1232
a(S'10'
p1233
F3589.7598125
tp1234
a(S'05'
p1235
F3594.2190625
tp1236
a(S'05'
p1237
F3599.0324375
tp1238
a(S'04'
p1239
F3610.0513125
tp1240
a(S'10'
p1241
F3619.5725
tp1242
a(S'17'
p1243
F3623.5905625
tp1244
a(S'05'
p1245
F3628.3168125
tp1246
a(S'05'
p1247
F3632.8805625
tp1248
a(S'08'
p1249
F3637.188875
tp1250
a(S'12'
p1251
F3641.3810625
tp1252
a(S'11'
p1253
F3645.41075
tp1254
a(S'24'
p1255
F3649.1501875
tp1256
a(S'12'
p1257
F3653.4004375
tp1258
a(S'07'
p1259
F3663.6646875
tp1260
a(S'20'
p1261
F3667.299625
tp1262
a(S'12'
p1263
F3671.457
tp1264
a(S'06'
p1265
F3675.5911875
tp1266
a(S'10'
p1267
F3680.2245625
tp1268
a(S'05'
p1269
F3689.676125
tp1270
a(S'22'
p1271
F3693.473625
tp1272
a(S'14'
p1273
F3698.33925
tp1274
a(S'19'
p1275
F3706.2815
tp1276
a(S'17'
p1277
F3713.0163125
tp1278
a(S'08'
p1279
F3717.0691875
tp1280
a(S'10'
p1281
F3725.0114375
tp1282
a(S'03'
p1283
F3734.1959375
tp1284
a(S'08'
p1285
F3738.3533125
tp1286
a(S'02'
p1287
F3747.4565625
tp1288
a(S'01'
p1289
F3756.408875
tp1290
a(S'07'
p1291
F3761.135125
tp1292
a(S'14'
p1293
F3765.9310625
tp1294
a(S'14'
p1295
F3770.54125
tp1296
a(S'19'
p1297
F3778.7273125
tp1298
a(S'18'
p1299
F3786.1355
tp1300
a(S'10'
p1301
F3797.1079375
tp1302
a(S'20'
p1303
F3801.0679375
tp1304
a(S'08'
p1305
F3805.37625
tp1306
a(S'14'
p1307
F3814.3169375
tp1308
a(S'03'
p1309
F3819.0431875
tp1310
a(S'23'
p1311
F3823.1076875
tp1312
a(S'21'
p1313
F3826.7774375
tp1314
a(S'03'
p1315
F3830.71425
tp1316
a(S'12'
p1317
F3835.3011875
tp1318
a(S'20'
p1319
F3841.8966875
tp1320
a(S'18'
p1321
F3846.321125
tp1322
a(S'22'
p1323
F3850.176625
tp1324
a(S'14'
p1325
F3855.135125
tp1326
a(S'19'
p1327
F3859.4840625
tp1328
a(S'05'
p1329
F3875.1236875
tp1330
a(S'11'
p1331
F3879.14175
tp1332
a(S'24'
p1333
F3885.621125
tp1334
a(S'03'
p1335
F3889.62175
tp1336
a(S'03'
p1337
F3901.244375
tp1338
a(S'06'
p1339
F3910.1850625
tp1340
a(S'15'
p1341
F3915.0506875
tp1342
a(S'24'
p1343
F3918.9410625
tp1344
a(S'10'
p1345
F3923.5048125
tp1346
a(S'12'
p1347
F3928.0685625
tp1348
a(S'03'
p1349
F3932.5394375
tp1350
a(S'08'
p1351
F3936.662
tp1352
a(S'02'
p1353
F3940.9703125
tp1354
a(S'10'
p1355
F3950.294125
tp1356
a(S'07'
p1357
F3958.8285
tp1358
a(S'10'
p1359
F3963.5431875
tp1360
a(S'06'
p1361
F3967.8340625
tp1362
a(S'14'
p1363
F3972.421
tp1364
a(S'07'
p1365
F3985.970875
tp1366
a(S'12'
p1367
F3994.9928125
tp1368
a(S'08'
p1369
F3998.97025
tp1370
a(S'08'
p1371
F4007.36525
tp1372
a(S'05'
p1373
F4011.650375
tp1374
a(S'22'
p1375
F4017.1196875
tp1376
a(S'08'
p1377
F4021.311875
tp1378
a(S'14'
p1379
F4025.8291875
tp1380
a(S'22'
p1381
F4029.8124375
tp1382
a(S'04'
p1383
F4034.202
tp1384
a(S'21'
p1385
F4041.8075625
tp1386
a(S'18'
p1387
F4046.6499375
tp1388
a(S'06'
p1389
F4056.473
tp1390
a(S'05'
p1391
F4066.8649375
tp1392
a(S'02'
p1393
F4071.4983125
tp1394
a(S'14'
p1395
F4076.0736875
tp1396
a(S'23'
p1397
F4080.312375
tp1398
a(S'13'
p1399
F4084.8993125
tp1400
a(S'24'
p1401
F4088.8593125
tp1402
a(S'06'
p1403
F4093.1444375
tp1404
a(S'13'
p1405
F4101.1215
tp1406
a(S'18'
p1407
F4105.78975
tp1408
a(S'11'
p1409
F4114.0686875
tp1410
a(S'16'
p1411
F4118.8065625
tp1412
a(S'04'
p1413
F4123.114875
tp1414
a(S'24'
p1415
F4126.8195
tp1416
a(S'15'
p1417
F4131.36
tp1418
a(S'20'
p1419
F4135.1110625
tp1420
a(S'09'
p1421
F4139.16975
tp1422
a(S'06'
p1423
F4143.20525
tp1424
a(S'10'
p1425
F4155.6405625
tp1426
a(S'02'
p1427
F4159.7456875
tp1428
a(S'19'
p1429
F4164.2861875
tp1430
a(S'16'
p1431
F4174.1440625
tp1432
a(S'09'
p1433
F4178.7078125
tp1434
a(S'04'
p1435
F4182.7839375
tp1436
a(S'09'
p1437
F4187.370875
tp1438
a(S'24'
p1439
F4191.238
tp1440
a(S'21'
p1441
F4198.3326875
tp1442
a(S'04'
p1443
F4202.9660625
tp1444
a(S'05'
p1445
F4207.5065625
tp1446
a(S'11'
p1447
F4211.5710625
tp1448
a(S'19'
p1449
F4219.757125
tp1450
a(S'16'
p1451
F4224.7388125
tp1452
a(S'21'
p1453
F4228.547875
tp1454
a(S'23'
p1455
F4232.833
tp1456
a(S'05'
p1457
F4237.042625
tp1458
a(S'19'
p1459
F4241.2696875
tp1460
a(S'19'
p1461
F4249.7808125
tp1462
a(S'23'
p1463
F4253.6479375
tp1464
a(S'03'
p1465
F4257.9795
tp1466
a(S'14'
p1467
F4262.7986875
tp1468
a(S'10'
p1469
F4273.771125
tp1470
a(S'17'
p1471
F4278.2651875
tp1472
a(S'14'
p1473
F4282.7825
tp1474
a(S'19'
p1475
F4287.0501875
tp1476
a(S'03'
p1477
F4291.0334375
tp1478
a(S'06'
p1479
F4298.2094375
tp1480
a(S'06'
p1481
F4302.610625
tp1482
a(S'06'
p1483
F4307.0350625
tp1484
a(S'10'
p1485
F4319.470375
tp1486
a(S'18'
p1487
F4324.52175
tp1488
a(S'05'
p1489
F4328.6385
tp1490
a(S'02'
p1491
F4333.4111875
tp1492
a(S'02'
p1493
F4337.940125
tp1494
a(S'02'
p1495
F4347.043375
tp1496
a(S'10'
p1497
F4351.7
tp1498
a(S'14'
p1499
F4360.501375
tp1500
a(S'16'
p1501
F4365.1928125
tp1502
a(S'19'
p1503
F4369.4663125
tp1504
a(S'13'
p1505
F4373.983625
tp1506
a(S'19'
p1507
F4383.063625
tp1508
a(S'12'
p1509
F4393.9664375
tp1510
a(S'05'
p1511
F4402.326625
tp1512
a(S'10'
p1513
F4406.704625
tp1514
a(S'13'
p1515
F4411.454125
tp1516
a(S'17'
p1517
F4415.7856875
tp1518
a(S'12'
p1519
F4420.186875
tp1520
a(S'13'
p1521
F4428.9534375
tp1522
a(S'20'
p1523
F4432.959875
tp1524
a(S'15'
p1525
F4444.5360625
tp1526
a(S'21'
p1527
F4448.4264375
tp1528
a(S'14'
p1529
F4453.025
tp1530
a(S'14'
p1531
F4457.5190625
tp1532
a(S'02'
p1533
F4461.9899375
tp1534
a(S'06'
p1535
F4472.3354375
tp1536
a(S'04'
p1537
F4485.258375
tp1538
a(S'06'
p1539
F4494.4196875
tp1540
a(S'03'
p1541
F4498.3274375
tp1542
a(S'13'
p1543
F4506.90825
tp1544
a(S'03'
p1545
F4514.8853125
tp1546
a(S'09'
p1547
F4519.47225
tp1548
a(S'17'
p1549
F4523.618
tp1550
a(S'08'
p1551
F4528.2398125
tp1552
a(S'06'
p1553
F4532.548125
tp1554
a(S'22'
p1555
F4536.3049375
tp1556
a(S'20'
p1557
F4540.8454375
tp1558
a(S'02'
p1559
F4549.58875
tp1560
a(S'13'
p1561
F4554.2918125
tp1562
a(S'14'
p1563
F4558.785875
tp1564
a(S'16'
p1565
F4563.3438125
tp1566
a(S'06'
p1567
F4567.76825
tp1568
a(S'07'
p1569
F4572.332
tp1570
a(S'17'
p1571
F4581.028875
tp1572
a(S'02'
p1573
F4585.4300625
tp1574
a(S'01'
p1575
F4589.4829375
tp1576
a(S'12'
p1577
F4603.172125
tp1578
a(S'14'
p1579
F4607.59075
tp1580
a(S'12'
p1581
F4618.83025
tp1582
a(S'06'
p1583
F4623.5565
tp1584
a(S'15'
p1585
F4628.49175
tp1586
a(S'22'
p1587
F4632.277625
tp1588
a(S'14'
p1589
F4636.853
tp1590
a(S'11'
p1591
F4644.6443125
tp1592
a(S'04'
p1593
F4657.451125
tp1594
a(S'22'
p1595
F4661.2601875
tp1596
a(S'01'
p1597
F4670.2125
tp1598
a(S'04'
p1599
F4674.6020625
tp1600
a(S'18'
p1601
F4679.386375
tp1602
a(S'23'
p1603
F4685.76125
tp1604
a(S'11'
p1605
F4690.2959375
tp1606
a(S'15'
p1607
F4695.115125
tp1608
a(S'11'
p1609
F4706.15725
tp1610
a(S'12'
p1611
F4710.5584375
tp1612
a(S'06'
p1613
F4714.564875
tp1614
a(S'03'
p1615
F4722.2749375
tp1616
a(S'17'
p1617
F4733.5028125
tp1618
a(S'10'
p1619
F4738.1361875
tp1620
a(S'16'
p1621
F4747.5993125
tp1622
a(S'05'
p1623
F4757.8635625
tp1624
a(S'03'
p1625
F4761.7190625
tp1626
a(S'03'
p1627
F4765.8648125
tp1628
a(S'13'
p1629
F4774.4688125
tp1630
a(S'23'
p1631
F4778.7075
tp1632
a(S'22'
p1633
F4782.307625
tp1634
a(S'08'
p1635
F4786.29375
tp1636
a(S'18'
p1637
F4794.3636875
tp1638
a(S'16'
p1639
F4798.75325
tp1640
a(S'19'
p1641
F4803.096375
tp1642
a(S'24'
p1643
F4806.8241875
tp1644
a(S'01'
p1645
F4810.6768125
tp1646
a(S'23'
p1647
F4821.27775
tp1648
a(S'14'
p1649
F4830.5086875
tp1650
a(S'12'
p1651
F4841.17925
tp1652
a(S'07'
p1653
F4846.30025
tp1654
a(S'14'
p1655
F4858.271125
tp1656
a(S'20'
p1657
F4865.551625
tp1658
a(S'10'
p1659
F4869.9528125
tp1660
a(S'09'
p1661
F4878.220125
tp1662
a(S'12'
p1663
F4882.4239375
tp1664
a(S'04'
p1665
F4893.187375
tp1666
a(S'06'
p1667
F4902.1280625
tp1668
a(S'19'
p1669
F4906.4828125
tp1670
a(S'18'
p1671
F4911.38325
tp1672
a(S'21'
p1673
F4914.960125
tp1674
a(S'06'
p1675
F4919.1523125
tp1676
a(S'20'
p1677
F4922.984625
tp1678
a(S'06'
p1679
F4934.5375625
tp1680
a(S'07'
p1681
F4943.21125
tp1682
a(S'14'
p1683
F4947.7285625
tp1684
a(S'15'
p1685
F4952.2690625
tp1686
a(S'04'
p1687
F4963.729125
tp1688
a(S'23'
p1689
F4967.689125
tp1690
a(S'23'
p1691
F4971.6026875
tp1692
a(S'18'
p1693
F4976.189625
tp1694
a(S'04'
p1695
F4980.8694375
tp1696
a(S'12'
p1697
F4988.6839375
tp1698
a(S'22'
p1699
F4992.318875
tp1700
a(S'10'
p1701
F5001.6426875
tp1702
a(S'22'
p1703
F5011.15225
tp1704
a(S'24'
p1705
F5014.9729375
tp1706
a(S'24'
p1707
F5018.5208125
tp1708
a(S'17'
p1709
F5023.432875
tp1710
a(S'22'
p1711
F5027.392875
tp1712
a(S'24'
p1713
F5031.1613125
tp1714
a(S'20'
p1715
F5038.9061875
tp1716
a(S'09'
p1717
F5043.0055
tp1718
a(S'10'
p1719
F5047.638875
tp1720
a(S'04'
p1721
F5051.9065625
tp1722
a(S'12'
p1723
F5061.416125
tp1724
a(S'13'
p1725
F5071.1115
tp1726
a(S'03'
p1727
F5075.3036875
tp1728
a(S'15'
p1729
F5080.2389375
tp1730
a(S'16'
p1731
F5084.825875
tp1732
a(S'11'
p1733
F5089.3431875
tp1734
a(S'08'
p1735
F5093.477375
tp1736
a(S'17'
p1737
F5097.7625
tp1738
a(S'11'
p1739
F5102.4423125
tp1740
a(S'21'
p1741
F5106.1236875
tp1742
a(S'12'
p1743
F5110.4088125
tp1744
a(S'09'
p1745
F5114.7519375
tp1746
a(S'01'
p1747
F5121.6144375
tp1748
a(S'17'
p1749
F5130.9150625
tp1750
a(S'18'
p1751
F5139.461
tp1752
a(S'21'
p1753
F5143.44425
tp1754
a(S'07'
p1755
F5148.3446875
tp1756
a(S'23'
p1757
F5154.7311875
tp1758
a(S'18'
p1759
F5162.986875
tp1760
a(S'24'
p1761
F5170.99875
tp1762
a(S'20'
p1763
F5175.16775
tp1764
a(S'22'
p1765
F5179.151
tp1766
a(S'10'
p1767
F5184.0398125
tp1768
a(S'08'
p1769
F5190.3101875
tp1770
a(S'09'
p1771
F5200.5628125
tp1772
a(S'02'
p1773
F5204.9291875
tp1774
a(S'24'
p1775
F5214.5084375
tp1776
a(S'10'
p1777
F5219.043125
tp1778
a(S'13'
p1779
F5228.7385
tp1780
a(S'13'
p1781
F5238.5731875
tp1782
a(S'11'
p1783
F5246.3645
tp1784
a(S'15'
p1785
F5255.4329375
tp1786
a(S'05'
p1787
F5263.793125
tp1788
a(S'14'
p1789
F5268.4961875
tp1790
a(S'21'
p1791
F5272.06
tp1792
a(S'07'
p1793
F5276.0955
tp1794
a(S'24'
p1795
F5279.7304375
tp1796
a(S'11'
p1797
F5283.8761875
tp1798
a(S'13'
p1799
F5288.498
tp1800
a(S'03'
p1801
F5292.6901875
tp1802
a(S'15'
p1803
F5297.277125
tp1804
a(S'01'
p1805
F5301.4809375
tp1806
a(S'09'
p1807
F5305.562875
tp1808
a(S'15'
p1809
F5310.5329375
tp1810
a(S'01'
p1811
F5314.57425
tp1812
a(S'20'
p1813
F5318.360125
tp1814
a(S'15'
p1815
F5322.91225
tp1816
a(S'15'
p1817
F5327.940375
tp1818
a(S'15'
p1819
F5332.5005
tp1820
a(S'05'
p1821
F5336.61725
tp1822
a(S'15'
p1823
F5341.3899375
tp1824
a(S'04'
p1825
F5345.7795
tp1826
a(S'12'
p1827
F5350.23875
tp1828
a(S'16'
p1829
F5360.5378125
tp1830
a(S'04'
p1831
F5370.1054375
tp1832
a(S'09'
p1833
F5380.4045
tp1834
a(S'15'
p1835
F5389.4729375
tp1836
a(S'04'
p1837
F5394.0483125
tp1838
a(S'03'
p1839
F5398.5191875
tp1840
a(S'18'
p1841
F5402.943625
tp1842
a(S'02'
p1843
F5407.31
tp1844
a(S'11'
p1845
F5411.241
tp1846
a(S'16'
p1847
F5415.6305625
tp1848
a(S'06'
p1849
F5419.82275
tp1850
a(S'05'
p1851
F5429.0885
tp1852
a(S'01'
p1853
F5436.9959375
tp1854
a(S'21'
p1855
F5443.8468125
tp1856
a(S'07'
p1857
F5448.468625
tp1858
a(S'20'
p1859
F5452.2254375
tp1860
a(S'11'
p1861
F5456.348
tp1862
a(S'06'
p1863
F5465.71825
tp1864
a(S'11'
p1865
F5471.826125
tp1866
a(S'20'
p1867
F5478.6654375
tp1868
a(S'15'
p1869
F5488.8368125
tp1870
a(S'06'
p1871
F5500.38975
tp1872
a(S'03'
p1873
F5504.6980625
tp1874
a(S'18'
p1875
F5514.0683125
tp1876
a(S'12'
p1877
F5518.109625
tp1878
a(S'07'
p1879
F5523.161
tp1880
a(S'15'
p1881
F5527.9105
tp1882
a(S'24'
p1883
F5531.8705
tp1884
a(S'08'
p1885
F5535.9291875
tp1886
a(S'04'
p1887
F5545.671
tp1888
a(S'24'
p1889
F5549.538125
tp1890
a(S'24'
p1891
F5553.149875
tp1892
a(S'02'
p1893
F5563.309625
tp1894
a(S'13'
p1895
F5568.0126875
tp1896
a(S'22'
p1897
F5571.9495
tp1898
a(S'15'
p1899
F5578.127
tp1900
a(S'06'
p1901
F5582.2611875
tp1902
a(S'13'
p1903
F5587.0919375
tp1904
a(S'04'
p1905
F5591.911125
tp1906
a(S'14'
p1907
F5596.4284375
tp1908
a(S'21'
p1909
F5600.2026875
tp1910
a(S'17'
p1911
F5604.3600625
tp1912
a(S'16'
p1913
F5608.877375
tp1914
a(S'11'
p1915
F5613.2205
tp1916
a(S'23'
p1917
F5617.7145625
tp1918
a(S'03'
p1919
F5622.046125
tp1920
a(S'13'
p1921
F5631.92725
tp1922
a(S'07'
p1923
F5636.6535
tp1924
a(S'08'
p1925
F5640.8689375
tp1926
a(S'14'
p1927
F5645.6996875
tp1928
a(S'22'
p1929
F5652.631875
tp1930
a(S'05'
p1931
F5663.2328125
tp1932
a(S'14'
p1933
F5671.7671875
tp1934
a(S'20'
p1935
F5678.58325
tp1936
a(S'03'
p1937
F5682.7174375
tp1938
a(S'06'
p1939
F5692.0876875
tp1940
a(S'19'
p1941
F5696.697875
tp1942
a(S'24'
p1943
F5700.24575
tp1944
a(S'22'
p1945
F5708.68725
tp1946
a(S'11'
p1947
F5712.7808125
tp1948
a(S'01'
p1949
F5717.2516875
tp1950
a(S'05'
p1951
F5721.6876875
tp1952
a(S'14'
p1953
F5726.216625
tp1954
a(S'01'
p1955
F5730.0750625
tp1956
a(S'24'
p1957
F5733.698375
tp1958
a(S'01'
p1959
F5737.524875
tp1960
a(S'22'
p1961
F5741.1830625
tp1962
a(S'16'
p1963
F5751.8420625
tp1964
a(S'01'
p1965
F5756.2665
tp1966
a(S'21'
p1967
F5760.04075
tp1968
a(S'01'
p1969
F5767.7275625
tp1970
a(S'18'
p1971
F5772.3145
tp1972
a(S'02'
p1973
F5782.7064375
tp1974
a(S'23'
p1975
F5790.3584375
tp1976
a(S'05'
p1977
F5794.4635625
tp1978
a(S'24'
p1979
F5802.8005625
tp1980
a(S'01'
p1981
F5807.09725
tp1982
a(S'11'
p1983
F5815.3761875
tp1984
a(S'13'
p1985
F5820.566875
tp1986
a(S'01'
p1987
F5824.4253125
tp1988
a(S'08'
p1989
F5828.7916875
tp1990
a(S'17'
p1991
F5833.1464375
tp1992
a(S'20'
p1993
F5839.5445625
tp1994
a(S'23'
p1995
F5843.667125
tp1996
a(S'21'
p1997
F5850.33225
tp1998
a(S'20'
p1999
F5857.4269375
tp2000
a(S'05'
p2001
F5866.3095625
tp2002
a(S'02'
p2003
F5870.6759375
tp2004
a(S'05'
p2005
F5875.2164375
tp2006
a(S'18'
p2007
F5880.0588125
tp2008
a(S'09'
p2009
F5884.4368125
tp2010
a(S'16'
p2011
F5894.03925
tp2012
a(S'19'
p2013
F5898.31275
tp2014
a(S'17'
p2015
F5902.8068125
tp2016
a(S'06'
p2017
F5906.941
tp2018
a(S'23'
p2019
F5910.993875
tp2020
a(S'17'
p2021
F5915.2209375
tp2022
a(S'05'
p2023
F5919.4305625
tp2024
a(S'02'
p2025
F5929.5903125
tp2026
a(S'12'
p2027
F5934.3165625
tp2028
a(S'08'
p2029
F5938.37525
tp2030
a(S'14'
p2031
F5942.9041875
tp2032
a(S'04'
p2033
F5952.820125
tp2034
a(S'21'
p2035
F5956.4783125
tp2036
a(S'23'
p2037
F5960.5311875
tp2038
a(S'02'
p2039
F5970.447125
tp2040
a(S'22'
p2041
F5978.888625
tp2042
a(S'04'
p2043
F5990.789875
tp2044
a(S'05'
p2045
F5995.4929375
tp2046
a(S'01'
p2047
F5999.6155
tp2048
a(S'15'
p2049
F6004.0515
tp2050
a(S'08'
p2051
F6008.3598125
tp2052
a(S'13'
p2053
F6012.7029375
tp2054
a(S'16'
p2055
F6017.0345
tp2056
a(S'03'
p2057
F6021.01775
tp2058
a(S'05'
p2059
F6025.3493125
tp2060
a(S'19'
p2061
F6029.9130625
tp2062
a(S'08'
p2063
F6034.7786875
tp2064
a(S'18'
p2065
F6039.5281875
tp2066
a(S'13'
p2067
F6044.057125
tp2068
a(S'09'
p2069
F6048.411875
tp2070
a(S'09'
p2071
F6056.249625
tp2072
a(S'02'
p2073
F6060.7436875
tp2074
a(S'23'
p2075
F6064.86625
tp2076
a(S'13'
p2077
F6072.8433125
tp2078
a(S'18'
p2079
F6082.2251875
tp2080
a(S'03'
p2081
F6086.359375
tp2082
a(S'07'
p2083
F6091.317875
tp2084
a(S'09'
p2085
F6095.672625
tp2086
a(S'09'
p2087
F6099.684875
tp2088
a(S'02'
p2089
F6103.84225
tp2090
a(S'22'
p2091
F6107.4771875
tp2092
a(S'20'
p2093
F6111.135375
tp2094
a(S'20'
p2095
F6114.909625
tp2096
a(S'01'
p2097
F6118.9509375
tp2098
a(S'04'
p2099
F6123.178
tp2100
a(S'09'
p2101
F6127.42825
tp2102
a(S'23'
p2103
F6131.38825
tp2104
a(S'01'
p2105
F6135.835875
tp2106
a(S'16'
p2107
F6140.7479375
tp2108
a(S'24'
p2109
F6150.3271875
tp2110
a(S'10'
p2111
F6154.8909375
tp2112
a(S'07'
p2113
F6163.9013125
tp2114
a(S'06'
p2115
F6173.724375
tp2116
a(S'23'
p2117
F6180.110875
tp2118
a(S'12'
p2119
F6184.570125
tp2120
a(S'04'
p2121
F6188.9596875
tp2122
a(S'04'
p2123
F6198.1441875
tp2124
a(S'23'
p2125
F6203.9385625
tp2126
a(S'09'
p2127
F6208.2004375
tp2128
a(S'07'
p2129
F6213.0660625
tp2130
a(S'05'
p2131
F6222.3318125
tp2132
a(S'15'
p2133
F6226.8375
tp2134
a(S'13'
p2135
F6236.6721875
tp2136
a(S'08'
p2137
F6242.9425625
tp2138
a(S'15'
p2139
F6247.6920625
tp2140
a(S'19'
p2141
F6252.2558125
tp2142
a(S'14'
p2143
F6260.3954375
tp2144
a(S'09'
p2145
F6270.6480625
tp2146
a(S'23'
p2147
F6274.5384375
tp2148
a(S'18'
p2149
F6279.0266875
tp2150
a(S'04'
p2151
F6283.6600625
tp2152
a(S'22'
p2153
F6287.596875
tp2154
a(S'11'
p2155
F6292.160625
tp2156
a(S'19'
p2157
F6296.3760625
tp2158
a(S'23'
p2159
F6300.498625
tp2160
a(S'04'
p2161
F6311.5175
tp2162
a(S'17'
p2163
F6315.802625
tp2164
a(S'05'
p2165
F6320.0180625
tp2166
a(S'09'
p2167
F6328.9935625
tp2168
a(S'02'
p2169
F6339.106875
tp2170
a(S'11'
p2171
F6345.516625
tp2172
a(S'16'
p2173
F6359.62375
tp2174
a(S'17'
p2175
F6367.0435625
tp2176
a(S'15'
p2177
F6374.9741875
tp2178
a(S'20'
p2179
F6383.6014375
tp2180
a(S'20'
p2181
F6387.3640625
tp2182
a(S'13'
p2183
F6392.369
tp2184
a(S'07'
p2185
F6400.903375
tp2186
a(S'06'
p2187
F6405.16525
tp2188
a(S'20'
p2189
F6412.44575
tp2190
a(S'21'
p2191
F6419.586875
tp2192
a(S'24'
p2193
F6429.2125625
tp2194
a(S'08'
p2195
F6433.3699375
tp2196
a(S'07'
p2197
F6438.1194375
tp2198
a(S'14'
p2199
F6442.9501875
tp2200
a(S'18'
p2201
F6447.5255625
tp2202
a(S'15'
p2203
F6452.5653125
tp2204
a(S'15'
p2205
F6457.3148125
tp2206
a(S'06'
p2207
F6461.6115
tp2208
a(S'16'
p2209
F6470.32
tp2210
a(S'16'
p2211
F6474.8779375
tp2212
a(S'23'
p2213
F6486.1058125
tp2214
a(S'14'
p2215
F6496.4745625
tp2216
a(S'01'
p2217
F6505.0785625
tp2218
a(S'11'
p2219
F6509.294
tp2220
a(S'13'
p2221
F6517.8748125
tp2222
a(S'09'
p2223
F6522.4385625
tp2224
a(S'21'
p2225
F6526.3289375
tp2226
a(S'07'
p2227
F6530.3644375
tp2228
a(S'15'
p2229
F6539.409625
tp2230
a(S'04'
p2231
F6544.135875
tp2232
a(S'17'
p2233
F6554.4581875
tp2234
a(S'03'
p2235
F6561.669
tp2236
a(S'12'
p2237
F6572.5718125
tp2238
a(S'03'
p2239
F6576.764
tp2240
a(S'11'
p2241
F6580.921375
tp2242
a(S'11'
p2243
F6584.9510625
tp2244
a(S'03'
p2245
F6593.137125
tp2246
a(S'22'
p2247
F6601.6715
tp2248
a(S'16'
p2249
F6606.2584375
tp2250
a(S'19'
p2251
F6610.4013125
tp2252
a(S'05'
p2253
F6614.5935
tp2254
a(S'11'
p2255
F6618.646375
tp2256
a(S'08'
p2257
F6622.919875
tp2258
a(S'09'
p2259
F6629.3528125
tp2260
a(S'14'
p2261
F6633.7191875
tp2262
a(S'13'
p2263
F6638.2713125
tp2264
a(S'24'
p2265
F6649.1625
tp2266
a(S'21'
p2267
F6658.045125
tp2268
a(S'13'
p2269
F6662.7481875
tp2270
a(S'21'
p2271
F6666.66175
tp2272
a(S'15'
p2273
F6675.7069375
tp2274
a(S'09'
p2275
F6686.8419375
tp2276
a(S'06'
p2277
F6690.5175
tp2278
a(S'08'
p2279
F6694.6690625
tp2280
a(S'16'
p2281
F6699.9758125
tp2282
a(S'11'
p2283
F6704.0403125
tp2284
a(S'19'
p2285
F6708.2325
tp2286
a(S'17'
p2287
F6712.6046875
tp2288
a(S'13'
p2289
F6717.2380625
tp2290
a(S'15'
p2291
F6721.8830625
tp2292
a(S'22'
p2293
F6725.639875
tp2294
a(S'04'
p2295
F6736.589125
tp2296
a(S'10'
p2297
F6746.934625
tp2298
a(S'22'
p2299
F6755.051
tp2300
a(S'03'
p2301
F6762.7610625
tp2302
a(S'01'
p2303
F6766.6136875
tp2304
a(S'02'
p2305
F6771.0265
tp2306
a(S'12'
p2307
F6775.4509375
tp2308
a(S'19'
p2309
F6779.678
tp2310
a(S'24'
p2311
F6787.8408125
tp2312
a(S'11'
p2313
F6791.9865625
tp2314
a(S'21'
p2315
F6797.9435
tp2316
a(S'06'
p2317
F6802.4375625
tp2318
a(S'04'
p2319
F6807.25675
tp2320
a(S'12'
p2321
F6815.9304375
tp2322
a(S'24'
p2323
F6819.7279375
tp2324
a(S'18'
p2325
F6830.6539375
tp2326
a(S'14'
p2327
F6841.0226875
tp2328
a(S'24'
p2329
F6844.7505
tp2330
a(S'08'
p2331
F6849.1285
tp2332
a(S'20'
p2333
F6855.9678125
tp2334
a(S'13'
p2335
F6860.879875
tp2336
a(S'02'
p2337
F6864.985
tp2338
a(S'05'
p2339
F6869.13075
tp2340
a(S'06'
p2341
F6873.5319375
tp2342
a(S'11'
p2343
F6878.066625
tp2344
a(S'13'
p2345
F6886.47325
tp2346
a(S'09'
p2347
F6891.0718125
tp2348
a(S'15'
p2349
F6895.6123125
tp2350
a(S'01'
p2351
F6903.299125
tp2352
a(S'02'
p2353
F6920.3784375
tp2354
a(S'19'
p2355
F6924.58225
tp2356
a(S'23'
p2357
F6932.23425
tp2358
a(S'10'
p2359
F6943.276375
tp2360
a(S'01'
p2361
F6950.9864375
tp2362
a(S'15'
p2363
F6956.93175
tp2364
a(S'15'
p2365
F6965.8724375
tp2366
a(S'20'
p2367
F6969.5654375
tp2368
a(S'01'
p2369
F6977.472875
tp2370
a(S'06'
p2371
F6981.7811875
tp2372
a(S'22'
p2373
F6985.509
tp2374
a(S'18'
p2375
F6990.3978125
tp2376
a(S'11'
p2377
F6994.532
tp2378
a(S'07'
p2379
F7003.7629375
tp2380
a(S'22'
p2381
F7007.7229375
tp2382
a(S'06'
p2383
F7014.5041875
tp2384
a(S'17'
p2385
F7023.2010625
tp2386
a(S'09'
p2387
F7027.880875
tp2388
a(S'09'
p2389
F7036.0785625
tp2390
a(S'13'
p2391
F7040.7119375
tp2392
a(S'02'
p2393
F7050.651125
tp2394
a(S'09'
p2395
F7058.0245
tp2396
a(S'01'
p2397
F7063.075875
tp2398
a(S'21'
p2399
F7066.75725
tp2400
a(S'16'
p2401
F7071.204875
tp2402
a(S'04'
p2403
F7075.6060625
tp2404
a(S'06'
p2405
F7079.937625
tp2406
a(S'13'
p2407
F7088.7041875
tp2408
a(S'14'
p2409
F7093.523375
tp2410
a(S'20'
p2411
F7097.378875
tp2412
a(S'18'
p2413
F7102.22125
tp2414
a(S'09'
p2415
F7111.19675
tp2416
a(S'07'
p2417
F7121.461
tp2418
a(S'21'
p2419
F7125.13075
tp2420
a(S'21'
p2421
F7129.183625
tp2422
a(S'07'
p2423
F7133.851875
tp2424
a(S'09'
p2425
F7141.689625
tp2426
a(S'09'
p2427
F7146.305625
tp2428
a(S'09'
p2429
F7150.4049375
tp2430
a(S'01'
p2431
F7161.30775
tp2432
a(S'12'
p2433
F7174.9969375
tp2434
a(S'09'
p2435
F7179.583875
tp2436
a(S'11'
p2437
F7183.6019375
tp2438
a(S'09'
p2439
F7190.719875
tp2440
a(S'18'
p2441
F7201.645875
tp2442
a(S'16'
p2443
F7206.2560625
tp2444
a(S'21'
p2445
F7210.0825625
tp2446
a(S'18'
p2447
F7218.33825
tp2448
a(S'15'
p2449
F7222.77425
tp2450
a(S'16'
p2451
F7227.3844375
tp2452
a(S'06'
p2453
F7231.518625
tp2454
a(S'05'
p2455
F7236.17525
tp2456
a(S'24'
p2457
F7244.4541875
tp2458
a(S'18'
p2459
F7255.3801875
tp2460
a(S'23'
p2461
F7264.0770625
tp2462
a(S'11'
p2463
F7268.3621875
tp2464
a(S'12'
p2465
F7272.58925
tp2466
a(S'16'
p2467
F7283.2830625
tp2468
a(S'18'
p2469
F7288.0441875
tp2470
a(S'18'
p2471
F7296.114125
tp2472
a(S'24'
p2473
F7303.162375
tp2474
a(S'12'
p2475
F7313.2756875
tp2476
a(S'09'
p2477
F7324.4106875
tp2478
a(S'04'
p2479
F7328.6958125
tp2480
a(S'18'
p2481
F7333.2711875
tp2482
a(S'21'
p2483
F7341.9796875
tp2484
a(S'24'
p2485
F7345.7075
tp2486
a(S'24'
p2487
F7349.412125
tp2488
a(S'04'
p2489
F7360.1755625
tp2490
a(S'02'
p2491
F7370.0915
tp2492
a(S'08'
p2493
F7374.4695
tp2494
a(S'03'
p2495
F7381.6803125
tp2496
a(S'05'
p2497
F7397.3199375
tp2498
a(S'22'
p2499
F7402.78925
tp2500
a(S'12'
p2501
F7406.946625
tp2502
a(S'07'
p2503
F7413.5536875
tp2504
a(S'04'
p2505
F7418.25675
tp2506
a(S'20'
p2507
F7422.0135625
tp2508
a(S'23'
p2509
F7425.9735625
tp2510
a(S'09'
p2511
F7430.0555
tp2512
a(S'22'
p2513
F7437.591375
tp2514
a(S'13'
p2515
F7442.5963125
tp2516
a(S'10'
p2517
F7447.6476875
tp2518
a(S'04'
p2519
F7460.570625
tp2520
a(S'08'
p2521
F7468.7334375
tp2522
a(S'12'
p2523
F7473.2275
tp2524
a(S'06'
p2525
F7477.3616875
tp2526
a(S'09'
p2527
F7487.66075
tp2528
a(S'24'
p2529
F7491.3885625
tp2530
a(S'23'
p2531
F7495.429875
tp2532
a(S'22'
p2533
F7503.65075
tp2534
a(S'11'
p2535
F7508.1680625
tp2536
a(S'23'
p2537
F7512.1396875
tp2538
a(S'11'
p2539
F7516.7034375
tp2540
a(S'16'
p2541
F7521.22075
tp2542
a(S'19'
p2543
F7531.183125
tp2544
a(S'07'
p2545
F7535.8049375
tp2546
a(S'20'
p2547
F7539.556
tp2548
a(S'01'
p2549
F7548.16
tp2550
a(S'24'
p2551
F7556.5318125
tp2552
a(S'07'
p2553
F7566.18075
tp2554
a(S'06'
p2555
F7570.14075
tp2556
a(S'10'
p2557
F7577.699875
tp2558
a(S'03'
p2559
F7582.0081875
tp2560
a(S'01'
p2561
F7586.432625
tp2562
a(S'02'
p2563
F7590.996375
tp2564
a(S'10'
p2565
F7595.2930625
tp2566
a(S'19'
p2567
F7599.787125
tp2568
a(S'16'
p2569
F7609.645
tp2570
a(S'21'
p2571
F7613.326375
tp2572
a(S'13'
p2573
F7617.8204375
tp2574
a(S'17'
p2575
F7622.7325
tp2576
a(S'10'
p2577
F7632.8341875
tp2578
a(S'16'
p2579
F7641.879375
tp2580
a(S'18'
p2581
F7651.2264375
tp2582
a(S'22'
p2583
F7655.0239375
tp2584
a(S'23'
p2585
F7658.9143125
tp2586
a(S'16'
p2587
F7663.5709375
tp2588
a(S'12'
p2589
F7667.7283125
tp2590
a(S'21'
p2591
F7674.5791875
tp2592
a(S'01'
p2593
F7679.2125625
tp2594
a(S'04'
p2595
F7691.1138125
tp2596
a(S'17'
p2597
F7695.4685625
tp2598
a(S'01'
p2599
F7699.2660625
tp2600
a(S'03'
p2601
F7703.3538125
tp2602
a(S'22'
p2603
F7711.3076875
tp2604
a(S'17'
p2605
F7715.3199375
tp2606
a(S'07'
p2607
F7719.814
tp2608
a(S'09'
p2609
F7724.0875
tp2610
a(S'05'
p2611
F7728.65125
tp2612
a(S'17'
p2613
F7738.532375
tp2614
a(S'15'
p2615
F7746.463
tp2616
a(S'03'
p2617
F7754.579375
tp2618
a(S'05'
p2619
F7761.6856875
tp2620
a(S'15'
p2621
F7766.2261875
tp2622
a(S'03'
p2623
F7770.5113125
tp2624
a(S'15'
p2625
F7779.5216875
tp2626
a(S'16'
p2627
F7789.82075
tp2628
a(S'05'
p2629
F7794.2103125
tp2630
a(S'21'
p2631
F7798.1006875
tp2632
a(S'13'
p2633
F7806.7046875
tp2634
a(S'20'
p2635
F7810.711125
tp2636
a(S'22'
p2637
F7814.508625
tp2638
a(S'02'
p2639
F7819.072375
tp2640
a(S'22'
p2641
F7828.4775
tp2642
a(S'08'
p2643
F7837.8013125
tp2644
a(S'17'
p2645
F7844.536125
tp2646
a(S'19'
p2647
F7848.7631875
tp2648
a(S'08'
p2649
F7858.2379375
tp2650
a(S'04'
p2651
F7868.153875
tp2652
a(S'02'
p2653
F7872.78725
tp2654
a(S'17'
p2655
F7877.0316875
tp2656
a(S'17'
p2657
F7881.270375
tp2658
a(S'04'
p2659
F7885.84575
tp2660
a(S'10'
p2661
F7890.7578125
tp2662
a(S'03'
p2663
F7898.0615
tp2664
a(S'03'
p2665
F7902.14925
tp2666
a(S'19'
p2667
F7906.3646875
tp2668
a(S'23'
p2669
F7910.3246875
tp2670
a(S'12'
p2671
F7914.749125
tp2672
a(S'20'
p2673
F7918.3840625
tp2674
a(S'07'
p2675
F7923.0290625
tp2676
a(S'07'
p2677
F7932.2135625
tp2678
a(S'07'
p2679
F7936.8585625
tp2680
a(S'16'
p2681
F7941.67775
tp2682
a(S'06'
p2683
F7946.3575625
tp2684
a(S'23'
p2685
F7953.6148125
tp2686
a(S'21'
p2687
F7963.6816875
tp2688
a(S'01'
p2689
F7967.8506875
tp2690
a(S'10'
p2691
F7975.4098125
tp2692
a(S'10'
p2693
F7980.031625
tp2694
a(S'16'
p2695
F7984.8043125
tp2696
a(S'23'
p2697
F7991.0979375
tp2698
a(S'23'
p2699
F7999.5974375
tp2700
a(S'17'
p2701
F8010.8253125
tp2702
a(S'15'
p2703
F8018.012875
tp2704
a(S'18'
p2705
F8022.58825
tp2706
a(S'04'
p2707
F8026.664375
tp2708
a(S'10'
p2709
F8034.606625
tp2710
a(S'09'
p2711
F8042.8043125
tp2712
a(S'03'
p2713
F8046.903625
tp2714
a(S'16'
p2715
F8051.734375
tp2716
a(S'21'
p2717
F8055.62475
tp2718
a(S'20'
p2719
F8064.60025
tp2720
a(S'18'
p2721
F8069.5355
tp2722
a(S'09'
p2723
F8073.809
tp2724
a(S'01'
p2725
F8077.7225625
tp2726
a(S'23'
p2727
F8088.9504375
tp2728
a(S'23'
p2729
F8099.551375
tp2730
a(S'03'
p2731
F8103.459125
tp2732
a(S'24'
p2733
F8107.0128125
tp2734
a(S'18'
p2735
F8111.7506875
tp2736
a(S'07'
p2737
F8116.3956875
tp2738
a(S'20'
p2739
F8124.47725
tp2740
a(S'11'
p2741
F8132.8374375
tp2742
a(S'17'
p2743
F8136.93675
tp2744
a(S'16'
p2745
F8146.399875
tp2746
a(S'18'
p2747
F8151.358375
tp2748
a(S'12'
p2749
F8155.51575
tp2750
a(S'14'
p2751
F8160.172375
tp2752
a(S'09'
p2753
F8164.2310625
tp2754
a(S'17'
p2755
F8174.1121875
tp2756
a(S'17'
p2757
F8181.532
tp2758
a(S'24'
p2759
F8185.0740625
tp2760
a(S'18'
p2761
F8189.9396875
tp2762
a(S'02'
p2763
F8194.4801875
tp2764
a(S'17'
p2765
F8203.7808125
tp2766
a(S'24'
p2767
F8207.5783125
tp2768
a(S'05'
p2769
F8217.97025
tp2770
a(S'22'
p2771
F8226.504625
tp2772
a(S'08'
p2773
F8236.664375
tp2774
a(S'21'
p2775
F8245.372875
tp2776
a(S'13'
p2777
F8249.9946875
tp2778
a(S'21'
p2779
F8253.8850625
tp2780
a(S'13'
p2781
F8262.34975
tp2782
a(S'24'
p2783
F8266.054375
tp2784
a(S'20'
p2785
F8273.1490625
tp2786
a(S'12'
p2787
F8277.5154375
tp2788
a(S'02'
p2789
F8282.311375
tp2790
a(S'08'
p2791
F8286.480375
tp2792
a(S'22'
p2793
F8290.6958125
tp2794
a(S'04'
p2795
F8295.085375
tp2796
a(S'09'
p2797
F8299.6723125
tp2798
a(S'13'
p2799
F8308.53175
tp2800
a(S'08'
p2801
F8312.979375
tp2802
a(S'06'
p2803
F8317.24125
tp2804
a(S'14'
p2805
F8328.051125
tp2806
a(S'15'
p2807
F8338.2225
tp2808
a(S'14'
p2809
F8342.641125
tp2810
a(S'04'
p2811
F8347.0306875
tp2812
a(S'02'
p2813
F8351.4435
tp2814
a(S'19'
p2815
F8359.38575
tp2816
a(S'02'
p2817
F8363.6011875
tp2818
a(S'24'
p2819
F8367.9559375
tp2820
a(S'15'
p2821
F8372.6009375
tp2822
a(S'15'
p2823
F8377.106625
tp2824
a(S'15'
p2825
F8381.565875
tp2826
a(S'16'
p2827
F8395.673
tp2828
a(S'03'
p2829
F8399.65625
tp2830
a(S'07'
p2831
F8408.3299375
tp2832
a(S'06'
p2833
F8412.4873125
tp2834
a(S'01'
p2835
F8422.7399375
tp2836
a(S'11'
p2837
F8433.7820625
tp2838
a(S'16'
p2839
F8438.171625
tp2840
a(S'11'
p2841
F8442.421875
tp2842
a(S'23'
p2843
F8446.5444375
tp2844
a(S'05'
p2845
F8458.9333125
tp2846
a(S'02'
p2847
F8469.511
tp2848
a(S'07'
p2849
F8474.1328125
tp2850
a(S'12'
p2851
F8478.3830625
tp2852
a(S'24'
p2853
F8485.8725
tp2854
a(S'20'
p2855
F8489.501625
tp2856
a(S'18'
p2857
F8498.8486875
tp2858
a(S'02'
p2859
F8503.55175
tp2860
a(S'18'
p2861
F8512.1325625
tp2862
a(S'13'
p2863
F8520.2489375
tp2864
a(S'03'
p2865
F8528.3653125
tp2866
a(S'07'
p2867
F8532.9174375
tp2868
a(S'02'
p2869
F8537.4579375
tp2870
a(S'08'
p2871
F8544.3436875
tp2872
a(S'22'
p2873
F8547.967
tp2874
a(S'22'
p2875
F8551.5555
tp2876
a(S'11'
p2877
F8556.2353125
tp2878
a(S'09'
p2879
F8560.6133125
tp2880
a(S'11'
p2881
F8564.9913125
tp2882
a(S'18'
p2883
F8569.5666875
tp2884
a(S'01'
p2885
F8573.7124375
tp2886
a(S'17'
p2887
F8580.2963125
tp2888
a(S'22'
p2889
F8589.805875
tp2890
a(S'09'
p2891
F8594.43925
tp2892
a(S'23'
p2893
F8598.50375
tp2894
a(S'24'
p2895
F8602.2721875
tp2896
a(S'23'
p2897
F8606.5340625
tp2898
a(S'18'
p2899
F8615.114875
tp2900
a(S'20'
p2901
F8620.8744375
tp2902
a(S'20'
p2903
F8625.4149375
tp2904
a(S'05'
p2905
F8629.4416875
tp2906
a(S'20'
p2907
F8633.2159375
tp2908
a(S'21'
p2909
F8636.9785625
tp2910
a(S'24'
p2911
F8640.6309375
tp2912
a(S'09'
p2913
F8645.2295
tp2914
a(S'21'
p2915
F8648.829625
tp2916
a(S'06'
p2917
F8652.865125
tp2918
a(S'07'
p2919
F8657.9165
tp2920
a(S'12'
p2921
F8662.3060625
tp2922
a(S'11'
p2923
F8669.633
tp2924
a(S'10'
p2925
F8674.185125
tp2926
a(S'09'
p2927
F8678.801125
tp2928
a(S'10'
p2929
F8683.0978125
tp2930
a(S'21'
p2931
F8686.692125
tp2932
a(S'24'
p2933
F8695.389
tp2934
a(S'03'
p2935
F8699.4883125
tp2936
a(S'10'
p2937
F8704.47
tp2938
a(S'14'
p2939
F8709.1730625
tp2940
a(S'03'
p2941
F8713.36525
tp2942
a(S'01'
p2943
F8717.4065625
tp2944
a(S'17'
p2945
F8725.1630625
tp2946
a(S'11'
p2947
F8732.5248125
tp2948
a(S'14'
p2949
F8736.8911875
tp2950
a(S'02'
p2951
F8741.1414375
tp2952
a(S'16'
p2953
F8745.914125
tp2954
a(S'08'
p2955
F8752.799875
tp2956
a(S'20'
p2957
F8756.5625
tp2958
a(S'08'
p2959
F8764.8181875
tp2960
a(S'03'
p2961
F8769.010375
tp2962
a(S'15'
p2963
F8776.9061875
tp2964
a(S'20'
p2965
F8780.65725
tp2966
a(S'24'
p2967
F8784.7565625
tp2968
a(S'01'
p2969
F8794.96275
tp2970
a(S'14'
p2971
F8799.5613125
tp2972
a(S'06'
p2973
F8804.241125
tp2974
a(S'16'
p2975
F8808.8513125
tp2976
a(S'16'
p2977
F8813.240875
tp2978
a(S'11'
p2979
F8817.491125
tp2980
a(S'11'
p2981
F8821.544
tp2982
a(S'16'
p2983
F8831.6456875
tp2984
a(S'02'
p2985
F8836.0585
tp2986
a(S'21'
p2987
F8843.722125
tp2988
a(S'12'
p2989
F8848.0885
tp2990
a(S'23'
p2991
F8852.0020625
tp2992
a(S'01'
p2993
F8856.0549375
tp2994
a(S'21'
p2995
F8859.9453125
tp2996
a(S'22'
p2997
F8863.6383125
tp2998
a(S'16'
p2999
F8868.0395
tp3000
a(S'16'
p3001
F8872.9515625
tp3002
a(S'22'
p3003
F8876.7490625
tp3004
a(S'14'
p3005
F8881.1966875
tp3006
a(S'11'
p3007
F8885.4818125
tp3008
a(S'24'
p3009
F8894.1786875
tp3010
a(S'18'
p3011
F8899.0675
tp3012
a(S'03'
p3013
F8906.2783125
tp3014
a(S'19'
p3015
F8910.691125
tp3016
a(S'08'
p3017
F8915.13875
tp3018
a(S'23'
p3019
F8921.432375
tp3020
a(S'14'
p3021
F8925.88
tp3022
a(S'01'
p3023
F8930.1883125
tp3024
a(S'04'
p3025
F8940.95175
tp3026
a(S'14'
p3027
F8945.91025
tp3028
a(S'17'
p3029
F8950.067625
tp3030
a(S'19'
p3031
F8959.2985625
tp3032
a(S'15'
p3033
F8964.0596875
tp3034
a(S'02'
p3035
F8974.173
tp3036
a(S'05'
p3037
F8978.3651875
tp3038
a(S'09'
p3039
F8986.6325
tp3040
a(S'06'
p3041
F8990.6738125
tp3042
a(S'17'
p3043
F8994.9125
tp3044
a(S'06'
p3045
F9003.3075
tp3046
a(S'11'
p3047
F9007.372
tp3048
a(S'03'
p3049
F9011.842875
tp3050
a(S'11'
p3051
F9020.145
tp3052
a(S'20'
p3053
F9029.1205
tp3054
a(S'23'
p3055
F9033.2895
tp3056
a(S'04'
p3057
F9037.5978125
tp3058
a(S'09'
p3059
F9041.9641875
tp3060
a(S'07'
p3061
F9046.5279375
tp3062
a(S'15'
p3063
F9051.300625
tp3064
a(S'12'
p3065
F9061.9711875
tp3066
a(S'15'
p3067
F9066.7206875
tp3068
a(S'24'
p3069
F9070.541375
tp3070
a(S'01'
p3071
F9074.6639375
tp3072
a(S'04'
p3073
F9078.983875
tp3074
a(S'23'
p3075
F9083.03675
tp3076
a(S'23'
p3077
F9090.9093125
tp3078
a(S'14'
p3079
F9095.3569375
tp3080
a(S'21'
p3081
F9099.2705
tp3082
a(S'19'
p3083
F9108.733625
tp3084
a(S'06'
p3085
F9117.6743125
tp3086
a(S'21'
p3087
F9121.20475
tp3088
a(S'22'
p3089
F9128.473625
tp3090
a(S'17'
p3091
F9135.847
tp3092
a(S'09'
p3093
F9140.0624375
tp3094
a(S'23'
p3095
F9144.1269375
tp3096
a(S'19'
p3097
F9148.53975
tp3098
a(S'22'
p3099
F9156.760625
tp3100
a(S'15'
p3101
F9161.52175
tp3102
a(S'05'
p3103
F9165.981
tp3104
a(S'03'
p3105
F9176.256875
tp3106
a(S'18'
p3107
F9180.8786875
tp3108
a(S'21'
p3109
F9186.835625
tp3110
a(S'22'
p3111
F9190.447375
tp3112
a(S'12'
p3113
F9200.5606875
tp3114
a(S'05'
p3115
F9205.0083125
tp3116
a(S'02'
p3117
F9209.502375
tp3118
a(S'15'
p3119
F9214.147375
tp3120
a(S'18'
p3121
F9222.7281875
tp3122
a(S'13'
p3123
F9227.5125
tp3124
a(S'04'
p3125
F9232.23875
tp3126
a(S'15'
p3127
F9238.1840625
tp3128
a(S'07'
p3129
F9242.8523125
tp3130
a(S'22'
p3131
F9246.5105
tp3132
a(S'14'
p3133
F9251.34125
tp3134
a(S'13'
p3135
F9260.2006875
tp3136
a(S'17'
p3137
F9264.69475
tp3138
a(S'21'
p3139
F9273.577375
tp3140
a(S'11'
p3141
F9277.508375
tp3142
a(S'03'
p3143
F9281.4451875
tp3144
a(S'12'
p3145
F9285.7186875
tp3146
a(S'04'
p3147
F9289.934125
tp3148
a(S'03'
p3149
F9294.1263125
tp3150
a(S'08'
p3151
F9304.2860625
tp3152
a(S'23'
p3153
F9308.780125
tp3154
a(S'17'
p3155
F9313.0245625
tp3156
a(S'10'
p3157
F9323.3700625
tp3158
a(S'15'
p3159
F9328.18925
tp3160
a(S'20'
p3161
F9332.0215625
tp3162
a(S'21'
p3163
F9338.280375
tp3164
a(S'10'
p3165
F9342.9601875
tp3166
a(S'01'
p3167
F9350.8211875
tp3168
a(S'19'
p3169
F9363.906625
tp3170
a(S'08'
p3171
F9368.35425
tp3172
a(S'06'
p3173
F9372.89475
tp3174
a(S'24'
p3175
F9376.5529375
tp3176
a(S'06'
p3177
F9386.7126875
tp3178
a(S'04'
p3179
F9398.17275
tp3180
a(S'04'
p3181
F9402.632
tp3182
a(S'17'
p3183
F9406.8590625
tp3184
a(S'16'
p3185
F9411.26025
tp3186
a(S'07'
p3187
F9416.0445625
tp3188
a(S'18'
p3189
F9420.643125
tp3190
a(S'23'
p3191
F9424.696
tp3192
a(S'07'
p3193
F9429.55
tp3194
a(S'22'
p3195
F9433.1849375
tp3196
a(S'11'
p3197
F9441.545125
tp3198
a(S'23'
p3199
F9445.609625
tp3200
a(S'09'
p3201
F9449.883125
tp3202
a(S'20'
p3203
F9453.5645
tp3204
a(S'13'
p3205
F9457.930875
tp3206
a(S'15'
p3207
F9465.8266875
tp3208
a(S'17'
p3209
F9469.856375
tp3210
a(S'19'
p3211
F9474.4433125
tp3212
a(S'03'
p3213
F9482.629375
tp3214
a(S'15'
p3215
F9494.2055625
tp3216
a(S'03'
p3217
F9505.8281875
tp3218
a(S'11'
p3219
F9509.9043125
tp3220
a(S'05'
p3221
F9514.5609375
tp3222
a(S'09'
p3223
F9518.9389375
tp3224
a(S'21'
p3225
F9522.5390625
tp3226
a(S'04'
p3227
F9527.31175
tp3228
a(S'06'
p3229
F9531.85225
tp3230
a(S'14'
p3231
F9536.81075
tp3232
a(S'24'
p3233
F9540.3833125
tp3234
a(S'10'
p3235
F9549.0105625
tp3236
a(S'14'
p3237
F9557.3126875
tp3238
a(S'17'
p3239
F9567.426
tp3240
a(S'04'
p3241
F9577.1678125
tp3242
a(S'19'
p3243
F9581.4355
tp3244
a(S'02'
p3245
F9590.155625
tp3246
a(S'19'
p3247
F9594.719375
tp3248
a(S'18'
p3249
F9599.677875
tp3250
a(S'13'
p3251
F9604.137125
tp3252
a(S'02'
p3253
F9608.608
tp3254
a(S'05'
p3255
F9613.421375
tp3256
a(S'07'
p3257
F9617.9154375
tp3258
a(S'09'
p3259
F9625.2888125
tp3260
a(S'19'
p3261
F9629.782875
tp3262
a(S'17'
p3263
F9634.3930625
tp3264
a(S'06'
p3265
F9638.5620625
tp3266
a(S'16'
p3267
F9648.9308125
tp3268
a(S'06'
p3269
F9652.972125
tp3270
a(S'08'
p3271
F9657.141125
tp3272
a(S'16'
p3273
F9661.704875
tp3274
a(S'16'
p3275
F9666.0248125
tp3276
a(S'08'
p3277
F9670.0109375
tp3278
a(S'20'
p3279
F9673.6284375
tp3280
a(S'13'
p3281
F9678.018
tp3282
a(S'15'
p3283
F9686.0415
tp3284
a(S'08'
p3285
F9692.9620625
tp3286
a(S'02'
p3287
F9697.665125
tp3288
a(S'18'
p3289
F9702.53075
tp3290
a(S'19'
p3291
F9707.257
tp3292
a(S'08'
p3293
F9715.652
tp3294
a(S'05'
p3295
F9722.7583125
tp3296
a(S'08'
p3297
F9727.1363125
tp3298
a(S'20'
p3299
F9731.0963125
tp3300
a(S'08'
p3301
F9741.5115
tp3302
a(S'23'
p3303
F9745.483125
tp3304
a(S'17'
p3305
F9749.8843125
tp3306
a(S'19'
p3307
F9754.4248125
tp3308
a(S'15'
p3309
F9759.4529375
tp3310
a(S'18'
p3311
F9764.0283125
tp3312
a(S'17'
p3313
F9774.8614375
tp3314
a(S'13'
p3315
F9779.4948125
tp3316
a(S'22'
p3317
F9790.0144375
tp3318
a(S'20'
p3319
F9793.6435625
tp3320
a(S'04'
p3321
F9798.46275
tp3322
a(S'02'
p3323
F9802.713
tp3324
a(S'12'
p3325
F9807.1141875
tp3326
a(S'18'
p3327
F9811.828875
tp3328
a(S'22'
p3329
F9815.6379375
tp3330
a(S'08'
p3331
F9819.615375
tp3332
a(S'06'
p3333
F9824.341625
tp3334
a(S'20'
p3335
F9828.0926875
tp3336
a(S'05'
p3337
F9838.693625
tp3338
a(S'06'
p3339
F9843.0251875
tp3340
a(S'12'
p3341
F9847.217375
tp3342
a(S'11'
p3343
F9851.281875
tp3344
a(S'02'
p3345
F9855.75275
tp3346
a(S'07'
p3347
F9865.633875
tp3348
a(S'07'
p3349
F9870.2556875
tp3350
a(S'09'
p3351
F9874.5175625
tp3352
a(S'20'
p3353
F9878.02625
tp3354
a(S'21'
p3355
F9881.5900625
tp3356
a(S'04'
p3357
F9892.5393125
tp3358
a(S'14'
p3359
F9901.0736875
tp3360
a(S'23'
p3361
F9905.115
tp3362
a(S'07'
p3363
F9914.3459375
tp3364
a(S'13'
p3365
F9919.258
tp3366
a(S'19'
p3367
F9923.5546875
tp3368
a(S'07'
p3369
F9937.1045625
tp3370
a(S'16'
p3371
F9941.6683125
tp3372
a(S'01'
p3373
F9949.57575
tp3374
a(S'14'
p3375
F9954.4065
tp3376
a(S'06'
p3377
F9958.6335625
tp3378
a(S'02'
p3379
F9975.712875
tp3380
a(S'18'
p3381
F9980.5088125
tp3382
a(S'19'
p3383
F9989.542375
tp3384
a(S'23'
p3385
F9993.43275
tp3386
a(S'10'
p3387
F10002.0019375
tp3388
a(S'13'
p3389
F10006.8095
tp3390
a(S'19'
p3391
F10011.4196875
tp3392
a(S'21'
p3393
F10015.1126875
tp3394
a(S'03'
p3395
F10019.5835625
tp3396
a(S'02'
p3397
F10023.973125
tp3398
a(S'10'
p3399
F10029.0245
tp3400
a(S'20'
p3401
F10032.642
tp3402
a(S'10'
p3403
F10037.496
tp3404
a(S'10'
p3405
F10046.12325
tp3406
a(S'11'
p3407
F10053.485
tp3408
a(S'05'
p3409
F10057.8745625
tp3410
a(S'12'
p3411
F10062.3105625
tp3412
a(S'13'
p3413
F10066.9439375
tp3414
a(S'07'
p3415
F10072.04175
tp3416
a(S'23'
p3417
F10075.9205
tp3418
a(S'21'
p3419
F10079.53225
tp3420
a(S'06'
p3421
F10086.487625
tp3422
a(S'19'
p3423
F10091.213875
tp3424
a(S'11'
p3425
F10095.3364375
tp3426
a(S'17'
p3427
F10099.708625
tp3428
a(S'02'
p3429
F10104.1098125
tp3430
a(S'08'
p3431
F10111.030375
tp3432
a(S'13'
p3433
F10115.6289375
tp3434
a(S'16'
p3435
F10126.2879375
tp3436
a(S'22'
p3437
F10129.8764375
tp3438
a(S'19'
p3439
F10134.225375
tp3440
a(S'01'
p3441
F10142.1328125
tp3442
a(S'14'
p3443
F10151.5959375
tp3444
a(S'15'
p3445
F10160.6063125
tp3446
a.